; ModuleID = '19/2071.c'
source_filename = "19/2071.c"
target datalayout = "e-m:e-p270:32:32-p271:32:32-p272:64:64-i64:64-f80:128-n8:16:32:64-S128"
target triple = "x86_64-pc-linux-gnu"

@.str = private unnamed_addr constant [3 x i8] c"%c\00", align 1
@.str.1 = private unnamed_addr constant [2 x i8] c" \00", align 1
@.str.2 = private unnamed_addr constant [4 x i8] c"%c\00\00", align 1

; Function Attrs: noinline nounwind uwtable
define dso_local i32 @main() #0 {
  %1 = alloca i32, align 4
  %2 = alloca [11 x i8], align 1
  %3 = alloca [101 x i8], align 16
  %4 = alloca [11 x i8], align 1
  %5 = alloca [16 x [11 x i8]], align 16
  %6 = alloca i32, align 4
  %7 = alloca i32, align 4
  %8 = alloca i32, align 4
  %9 = alloca i32, align 4
  %10 = alloca i32, align 4
  %11 = alloca [22 x i32], align 16
  store i32 0, i32* %1, align 4
  %12 = getelementptr inbounds [101 x i8], [101 x i8]* %3, i64 0, i64 0
  %13 = call i32 (i8*, ...) bitcast (i32 (...)* @gets to i32 (i8*, ...)*)(i8* %12)
  %14 = getelementptr inbounds [11 x i8], [11 x i8]* %2, i64 0, i64 0
  %15 = call i32 (i8*, ...) bitcast (i32 (...)* @gets to i32 (i8*, ...)*)(i8* %14)
  %16 = getelementptr inbounds [11 x i8], [11 x i8]* %4, i64 0, i64 0
  %17 = call i32 (i8*, ...) bitcast (i32 (...)* @gets to i32 (i8*, ...)*)(i8* %16)
  store i32 0, i32* %6, align 4
  store i32 0, i32* %8, align 4
  store i32 0, i32* %9, align 4
  br label %18

18:                                               ; preds = %53, %0
  %19 = load i32, i32* %6, align 4
  %20 = sext i32 %19 to i64
  %21 = getelementptr inbounds [101 x i8], [101 x i8]* %3, i64 0, i64 %20
  %22 = load i8, i8* %21, align 1
  %23 = sext i8 %22 to i32
  %24 = icmp ne i32 %23, 0
  br i1 %24, label %25, label %56

25:                                               ; preds = %18
  %26 = load i32, i32* %6, align 4
  %27 = sext i32 %26 to i64
  %28 = getelementptr inbounds [101 x i8], [101 x i8]* %3, i64 0, i64 %27
  %29 = load i8, i8* %28, align 1
  %30 = sext i8 %29 to i32
  %31 = icmp ne i32 %30, 32
  br i1 %31, label %32, label %45

32:                                               ; preds = %25
  %33 = load i32, i32* %6, align 4
  %34 = sext i32 %33 to i64
  %35 = getelementptr inbounds [101 x i8], [101 x i8]* %3, i64 0, i64 %34
  %36 = load i8, i8* %35, align 1
  %37 = load i32, i32* %8, align 4
  %38 = sext i32 %37 to i64
  %39 = getelementptr inbounds [16 x [11 x i8]], [16 x [11 x i8]]* %5, i64 0, i64 %38
  %40 = load i32, i32* %9, align 4
  %41 = sext i32 %40 to i64
  %42 = getelementptr inbounds [11 x i8], [11 x i8]* %39, i64 0, i64 %41
  store i8 %36, i8* %42, align 1
  %43 = load i32, i32* %9, align 4
  %44 = add nsw i32 %43, 1
  store i32 %44, i32* %9, align 4
  br label %52

45:                                               ; preds = %25
  %46 = load i32, i32* %9, align 4
  %47 = load i32, i32* %8, align 4
  %48 = sext i32 %47 to i64
  %49 = getelementptr inbounds [22 x i32], [22 x i32]* %11, i64 0, i64 %48
  store i32 %46, i32* %49, align 4
  store i32 0, i32* %9, align 4
  %50 = load i32, i32* %8, align 4
  %51 = add nsw i32 %50, 1
  store i32 %51, i32* %8, align 4
  br label %52

52:                                               ; preds = %45, %32
  br label %53

53:                                               ; preds = %52
  %54 = load i32, i32* %6, align 4
  %55 = add nsw i32 %54, 1
  store i32 %55, i32* %6, align 4
  br label %18

56:                                               ; preds = %18
  %57 = load i32, i32* %9, align 4
  %58 = load i32, i32* %8, align 4
  %59 = sext i32 %58 to i64
  %60 = getelementptr inbounds [22 x i32], [22 x i32]* %11, i64 0, i64 %59
  store i32 %57, i32* %60, align 4
  store i32 0, i32* %6, align 4
  store i32 0, i32* %7, align 4
  br label %61

61:                                               ; preds = %146, %56
  %62 = load i32, i32* %6, align 4
  %63 = load i32, i32* %8, align 4
  %64 = icmp sle i32 %62, %63
  br i1 %64, label %65, label %149

65:                                               ; preds = %61
  %66 = getelementptr inbounds [11 x i8], [11 x i8]* %2, i64 0, i64 0
  %67 = load i8, i8* %66, align 1
  %68 = sext i8 %67 to i32
  %69 = load i32, i32* %6, align 4
  %70 = sext i32 %69 to i64
  %71 = getelementptr inbounds [16 x [11 x i8]], [16 x [11 x i8]]* %5, i64 0, i64 %70
  %72 = getelementptr inbounds [11 x i8], [11 x i8]* %71, i64 0, i64 0
  %73 = load i8, i8* %72, align 1
  %74 = sext i8 %73 to i32
  %75 = icmp eq i32 %68, %74
  br i1 %75, label %76, label %145

76:                                               ; preds = %65
  store i32 1, i32* %10, align 4
  store i32 0, i32* %7, align 4
  br label %77

77:                                               ; preds = %111, %76
  %78 = load i32, i32* %7, align 4
  %79 = load i32, i32* %6, align 4
  %80 = sext i32 %79 to i64
  %81 = getelementptr inbounds [22 x i32], [22 x i32]* %11, i64 0, i64 %80
  %82 = load i32, i32* %81, align 4
  %83 = icmp slt i32 %78, %82
  br i1 %83, label %84, label %114

84:                                               ; preds = %77
  %85 = load i32, i32* %7, align 4
  %86 = sext i32 %85 to i64
  %87 = getelementptr inbounds [11 x i8], [11 x i8]* %2, i64 0, i64 %86
  %88 = load i8, i8* %87, align 1
  %89 = sext i8 %88 to i32
  %90 = load i32, i32* %6, align 4
  %91 = sext i32 %90 to i64
  %92 = getelementptr inbounds [16 x [11 x i8]], [16 x [11 x i8]]* %5, i64 0, i64 %91
  %93 = load i32, i32* %7, align 4
  %94 = sext i32 %93 to i64
  %95 = getelementptr inbounds [11 x i8], [11 x i8]* %92, i64 0, i64 %94
  %96 = load i8, i8* %95, align 1
  %97 = sext i8 %96 to i32
  %98 = icmp ne i32 %89, %97
  br i1 %98, label %99, label %100

99:                                               ; preds = %84
  store i32 0, i32* %10, align 4
  br label %100

100:                                              ; preds = %99, %84
  %101 = load i32, i32* %6, align 4
  %102 = sext i32 %101 to i64
  %103 = getelementptr inbounds [22 x i32], [22 x i32]* %11, i64 0, i64 %102
  %104 = load i32, i32* %103, align 4
  %105 = sext i32 %104 to i64
  %106 = getelementptr inbounds [11 x i8], [11 x i8]* %2, i64 0, i64 0
  %107 = call i64 @strlen(i8* %106) #3
  %108 = icmp ne i64 %105, %107
  br i1 %108, label %109, label %110

109:                                              ; preds = %100
  store i32 0, i32* %10, align 4
  br label %110

110:                                              ; preds = %109, %100
  br label %111

111:                                              ; preds = %110
  %112 = load i32, i32* %7, align 4
  %113 = add nsw i32 %112, 1
  store i32 %113, i32* %7, align 4
  br label %77

114:                                              ; preds = %77
  %115 = load i32, i32* %10, align 4
  %116 = icmp ne i32 %115, 0
  br i1 %116, label %117, label %144

117:                                              ; preds = %114
  store i32 0, i32* %7, align 4
  br label %118

118:                                              ; preds = %136, %117
  %119 = load i32, i32* %7, align 4
  %120 = sext i32 %119 to i64
  %121 = getelementptr inbounds [11 x i8], [11 x i8]* %4, i64 0, i64 %120
  %122 = load i8, i8* %121, align 1
  %123 = sext i8 %122 to i32
  %124 = icmp ne i32 %123, 0
  br i1 %124, label %125, label %139

125:                                              ; preds = %118
  %126 = load i32, i32* %7, align 4
  %127 = sext i32 %126 to i64
  %128 = getelementptr inbounds [11 x i8], [11 x i8]* %4, i64 0, i64 %127
  %129 = load i8, i8* %128, align 1
  %130 = load i32, i32* %6, align 4
  %131 = sext i32 %130 to i64
  %132 = getelementptr inbounds [16 x [11 x i8]], [16 x [11 x i8]]* %5, i64 0, i64 %131
  %133 = load i32, i32* %7, align 4
  %134 = sext i32 %133 to i64
  %135 = getelementptr inbounds [11 x i8], [11 x i8]* %132, i64 0, i64 %134
  store i8 %129, i8* %135, align 1
  br label %136

136:                                              ; preds = %125
  %137 = load i32, i32* %7, align 4
  %138 = add nsw i32 %137, 1
  store i32 %138, i32* %7, align 4
  br label %118

139:                                              ; preds = %118
  %140 = load i32, i32* %7, align 4
  %141 = load i32, i32* %6, align 4
  %142 = sext i32 %141 to i64
  %143 = getelementptr inbounds [22 x i32], [22 x i32]* %11, i64 0, i64 %142
  store i32 %140, i32* %143, align 4
  br label %144

144:                                              ; preds = %139, %114
  br label %145

145:                                              ; preds = %144, %65
  br label %146

146:                                              ; preds = %145
  %147 = load i32, i32* %6, align 4
  %148 = add nsw i32 %147, 1
  store i32 %148, i32* %6, align 4
  br label %61

149:                                              ; preds = %61
  store i32 0, i32* %6, align 4
  br label %150

150:                                              ; preds = %177, %149
  %151 = load i32, i32* %6, align 4
  %152 = load i32, i32* %8, align 4
  %153 = icmp slt i32 %151, %152
  br i1 %153, label %154, label %180

154:                                              ; preds = %150
  store i32 0, i32* %7, align 4
  br label %155

155:                                              ; preds = %172, %154
  %156 = load i32, i32* %7, align 4
  %157 = load i32, i32* %6, align 4
  %158 = sext i32 %157 to i64
  %159 = getelementptr inbounds [22 x i32], [22 x i32]* %11, i64 0, i64 %158
  %160 = load i32, i32* %159, align 4
  %161 = icmp slt i32 %156, %160
  br i1 %161, label %162, label %175

162:                                              ; preds = %155
  %163 = load i32, i32* %6, align 4
  %164 = sext i32 %163 to i64
  %165 = getelementptr inbounds [16 x [11 x i8]], [16 x [11 x i8]]* %5, i64 0, i64 %164
  %166 = load i32, i32* %7, align 4
  %167 = sext i32 %166 to i64
  %168 = getelementptr inbounds [11 x i8], [11 x i8]* %165, i64 0, i64 %167
  %169 = load i8, i8* %168, align 1
  %170 = sext i8 %169 to i32
  %171 = call i32 (i8*, ...) @printf(i8* getelementptr inbounds ([3 x i8], [3 x i8]* @.str, i64 0, i64 0), i32 %170)
  br label %172

172:                                              ; preds = %162
  %173 = load i32, i32* %7, align 4
  %174 = add nsw i32 %173, 1
  store i32 %174, i32* %7, align 4
  br label %155

175:                                              ; preds = %155
  %176 = call i32 (i8*, ...) @printf(i8* getelementptr inbounds ([2 x i8], [2 x i8]* @.str.1, i64 0, i64 0))
  br label %177

177:                                              ; preds = %175
  %178 = load i32, i32* %6, align 4
  %179 = add nsw i32 %178, 1
  store i32 %179, i32* %6, align 4
  br label %150

180:                                              ; preds = %150
  store i32 0, i32* %7, align 4
  br label %181

181:                                              ; preds = %198, %180
  %182 = load i32, i32* %7, align 4
  %183 = load i32, i32* %8, align 4
  %184 = sext i32 %183 to i64
  %185 = getelementptr inbounds [22 x i32], [22 x i32]* %11, i64 0, i64 %184
  %186 = load i32, i32* %185, align 4
  %187 = icmp slt i32 %182, %186
  br i1 %187, label %188, label %201

188:                                              ; preds = %181
  %189 = load i32, i32* %6, align 4
  %190 = sext i32 %189 to i64
  %191 = getelementptr inbounds [16 x [11 x i8]], [16 x [11 x i8]]* %5, i64 0, i64 %190
  %192 = load i32, i32* %7, align 4
  %193 = sext i32 %192 to i64
  %194 = getelementptr inbounds [11 x i8], [11 x i8]* %191, i64 0, i64 %193
  %195 = load i8, i8* %194, align 1
  %196 = sext i8 %195 to i32
  %197 = call i32 (i8*, ...) @printf(i8* getelementptr inbounds ([4 x i8], [4 x i8]* @.str.2, i64 0, i64 0), i32 %196)
  br label %198

198:                                              ; preds = %188
  %199 = load i32, i32* %7, align 4
  %200 = add nsw i32 %199, 1
  store i32 %200, i32* %7, align 4
  br label %181

201:                                              ; preds = %181
  ret i32 0
}

declare dso_local i32 @gets(...) #1

; Function Attrs: nounwind readonly
declare dso_local i64 @strlen(i8*) #2

declare dso_local i32 @printf(i8*, ...) #1


!llvm.module.flags = !{!0}
!llvm.ident = !{!1}

!0 = !{i32 1, !"wchar_size", i32 4}
!1 = !{!"clang version 10.0.0-4ubuntu1 "}
